target datalayout = "e-m:e-p270:32:32-p271:32:32-p272:64:64-i64:64-i128:128-f80:128-n8:16:32:64-S128"
target triple = "x86_64-pc-linux-gnu"

%struct.PROV_ECX_CTX = type { i64, ptr, ptr }

@.str = private unnamed_addr constant [57 x i8] c"../openssl/providers/implementations/exchange/ecx_exch.c\00", align 1

; Function Attrs: nounwind uwtable
define internal ptr @ecx_newctx(ptr noundef %0, i64 noundef %1) #0 {
  %3 = alloca ptr, align 8
  %4 = alloca ptr, align 8
  %5 = alloca i64, align 8
  %6 = alloca ptr, align 8
  %7 = alloca i32, align 4
  store ptr %0, ptr %4, align 8, !tbaa !3
  store i64 %1, ptr %5, align 8, !tbaa !13
  call void @llvm.lifetime.start.p0(i64 8, ptr %6) #4
  %8 = call i32 @ossl_prov_is_running()
  %9 = icmp ne i32 %8, 0
  br i1 %9, label %11, label %10

10:                                               ; preds = %2
  store ptr null, ptr %3, align 8
  store i32 1, ptr %7, align 4
  br label %21

11:                                               ; preds = %2
  %12 = call noalias ptr @CRYPTO_zalloc(i64 noundef 24, ptr noundef @.str, i32 noundef 52)
  store ptr %12, ptr %6, align 8, !tbaa !3
  %13 = load ptr, ptr %6, align 8, !tbaa !3
  %14 = icmp eq ptr %13, null
  br i1 %14, label %15, label %16

15:                                               ; preds = %11
  store ptr null, ptr %3, align 8
  store i32 1, ptr %7, align 4
  br label %21

16:                                               ; preds = %11
  %17 = load i64, ptr %5, align 8, !tbaa !13
  %18 = load ptr, ptr %6, align 8, !tbaa !3
  %19 = getelementptr inbounds nuw %struct.PROV_ECX_CTX, ptr %18, i32 0, i32 0
  store i64 %17, ptr %19, align 8, !tbaa !19
  %20 = load ptr, ptr %6, align 8, !tbaa !3
  store ptr %20, ptr %3, align 8
  store i32 1, ptr %7, align 4
  br label %21

21:                                               ; preds = %16, %15, %10
  call void @llvm.lifetime.end.p0(i64 8, ptr %6) #4
  %22 = load ptr, ptr %3, align 8
  ret ptr %22
}

; Function Attrs: nounwind uwtable
define internal ptr @x448_newctx(ptr noundef %0) #0 {
  %2 = alloca ptr, align 8
  store ptr %0, ptr %2, align 8, !tbaa !3
  %3 = load ptr, ptr %2, align 8, !tbaa !3
  %4 = call ptr @ecx_newctx(ptr noundef %3, i64 noundef 56)
  ret ptr %4
}